                   '#line 1 "../../../target_p2/Catalina_CMM_library.spin2"
                   '
                   ' This file exists to allow the CMM LUT library code to be compiled and
                   ' then turned into a blob suitable for loading as part of dynamically
                   ' loading a program. This is required because with Multi-Model support,
                   ' the kernel being loaded may require a different LUT library to the
                   ' kernel doing the loading.
                   '
                   ' Compile this library and convert it to a blob using commands similar
                   ' to the following:
                   '
                   '    p2_asm -I ..\..\target_p2 ..\..\target_p2\Catalina_CMM_library.spin2 -o cmm
                   '    spinc -p2 -B2 -n CMM_LUT_LIBRARY cmm.bin >CMM_library.inc
                   '
                   ' The resulting binary is not a true Catalina 1 binary - it is intended
                   ' only to allow the LUT library to be extracted using the spinc command.
                   '
                   
                   CON
                   
                   '#line 1 "../../../target_p2/Catalina_reserved.inc"
                   '------------------------- START OF RESERVED HUB ------------------------------
                   DAT
                   
01000                      orgh  $1000
                   
01000     fd801038 RESERVED jmp  #\NON_RESERVED  ' Lower 20 bits = address of non-reserved hub
01004     0aba9500 CLKFREQ  long _CLOCKFREQ      ' initial clock frequency (not updated)
01008     010c470b CLKMODE  long _CLOCKMODE      ' initial clock mode (not updated)
0100c     00038400 BAUDRATE long _BAUDRATE       ' initial baud rate (not updated)
                   
                   ' seglayout specifies the layout of the segments
                   
01010              seglayout                     ' $1010 - if this changes, change catbind.c
01010     00000008         long  SEGMENT_LAYOUT
                   
                   ' segtable contains the start address of each of the segments
                   
01014              segtable
01014     00001c00         long  @Catalina_Code
01018     00001d40         long  @Catalina_Cnst
0101c     00001d40         long  @Catalina_Init
01020     00001d40         long  @Catalina_Data
01024     00001d40         long  @Catalina_Ends
01028     00001c00         long  @Catalina_RO_Base
0102c     00001d40         long  @Catalina_RW_Base
01030     00001d40         long  @Catalina_RO_Ends
01034     00001d40         long  @Catalina_RW_Ends
                   
01038              NON_RESERVED
                   '--------------------------- END OF RESERVED HUB ------------------------------
                   '#line 21 "../../../target_p2/Catalina_CMM_library.spin2"
                   
                   CON
                   
                   SEGMENT_LAYOUT=8 ' CMM memory layout 0 (Code, Cnst, Init, Data)
                   
                   DAT
                   
                   ' Common Kernel library functions. This code is loaded and started by all
                   ' kernels (static and dynamic) and must fit in the area $300 - $3FF ...
                   
01c00 300           orgf $300
                   
01c00 300          Catalina_RO_Base
01c00 300          Catalina_Code
                   
01c00 300          LUT_LIBRARY
                   
                   ' include any necessary kernel library functions. This code is loaded and
                   ' executed from the LUT RAM ...
                   
                   '#line 1 "../../../target_p2/Catalina_kernel_library.inc"
                   ' Catalina kernel library functions ...
                   
                   ' avoid including the kernel library functions twice ...
                   
                   
                   
                   
                   DAT
                   
                   ' unsigned_d32 - 32 bit unsigned division
                   
01c00 300          unsigned_d32
01c00 300 fd100001          qdiv   r0,r1
01c04 301 fd600018          getqx  r0
01c08 302 0d600219   _ret_  getqy  r1
                   
                   ' signed_d32 - 32 bit signed division
                   
01c0c 303          signed_d32
01c0c 303 f6005201          mov    t3,r1           ' save sign for later
01c10 304 f6005400          mov    t4,r0
01c14 305 f6400201          abs    r1,r1
01c18 306 f6400000          abs    r0,r0
01c1c 307 f560522a          xor    t3,t4
01c20 308 fda00300          call   #\unsigned_d32  ' perform unsigned division
01c24 309 f610542a          mov    t4,t4 WC        ' get bit #31 into carry
01c28 30a f6800201          negc   r1,r1           ' adjust the sign of the remainder
01c2c 30b f6105229          mov    t3,t3 WC        ' get bit #31 into carry
01c30 30c 06800000   _ret_  negc   r0,r0           ' adjust the sign of the result
                   
                   ' do_plugin - call a plugin
                   '
                   ' On entry:
                   '       r3 = code:
                   '            - cog id if >= 128 (i.e. $80 + cog id)
                   '            - plugin type if < 128 (i.e. 0 .. 127)
                   '            - service id if < 0
                   '       r2 = data (optional pointer)
                   '
                   ' NOTES: Locks are currently only supported when invoking via a service id.
                   '        When using service id, the data should only use the lower 24 bits.
                   '
                   ' On exit:
                   '       R0 = result
                   
01c34 30d          do_plugin
01c34 30d f6045408         mov     t4,#8           ' t4 stores lock - default to none required
01c38 30e f6100003         mov     r0,r3 wc        ' get plugin type or cog id or service id
01c3c 30f cd90003c  if_b   jmp     #psvc           ' if < 0, code is a service id
01c40 310 f7cc0080         test    r0,#$80 wz      ' if bit 7 set ...
01c44 311 5d900074  if_nz  jmp     #pcog           ' code is a cog id ...
01c48 312          ptype                           ' ... otherwize it's a plugin type
01c48 312 f6004e55         mov     t1,reg          ' point to registry
01c4c 313 f6045000         mov     t2,#0           ' start at cog id 0
01c50 314          plgt1
01c50 314 f21c5008         cmp     t2,#8 wcz       ' run out of cogs?
01c54 315 3d9000a0  if_ae  jmp     #plugerr        ' yes - no such plugin
01c58 316 fb005227         rdlong  t3,t1           ' no - check cog's plugin type
01c5c 317 f0445218         shr     t3,#24          ' is it ...
01c60 318 f2085200         cmp     t3,r0 wz        ' ... the plugin type what we wanted?
01c64 319 ad90000c  if_z   jmp     #plgt2          ' yes - invoke plugin at this cog id
01c68 31a 51045001  if_nz  add     t2,#1           ' no - try ...
01c6c 31b 51044e04  if_nz  add     t1,#4           ' ... next ...
01c70 31c 5d9fffdc  if_nz  jmp     #plgt1          ' ... cog id
01c74 31d          plgt2
01c74 31d f6000028         mov     r0,t2           ' use the cog where we found the plugin
01c78 31e fd900040         jmp     #pcog           ' invoke plugin (via the cog id)
01c7c 31f          psvc
01c7c 31f f0640001         shl     r0,#1           ' read entry ...
01c80 320 f1000055         add     r0,reg          ' ... from ...
01c84 321 fae00000         rdword  r0,r0           ' ... the service registry
01c88 322 f6004e00         mov     t1,r0           ' save in t1 and extract ...
01c8c 323 f044000c         shr     r0,#12          ' ... cog number to r0
01c90 324 f6005027         mov     t2,t1           ' save in t2 and extract ...
01c94 325 f06c4e18         shl     t1,#24 wz       ' ... request code to t1 (top 8 bits) ...
01c98 326 ad90005c  if_z   jmp     #plugerr        ' ... or throw error if request code is zero
01c9c 327 f6005428         mov     t4,t2           ' extract ...
01ca0 328 f0445408         shr     t4,#8           ' ... lock number to t4
01ca4 329 f7cc5408         test    t4,#8 wz        ' are we required to use a lock?
01ca8 32a 5d900008  if_nz  jmp     #no_lock        ' no - just make the request
01cac 32b          set_lock
01cac 32b fd705406         locktry t4 wc           ' yes - loop ...
01cb0 32c 3d9ffff8  if_nc  jmp     #set_lock       ' ... until we have set the lock
01cb4 32d          no_lock
01cb4 32d f5200422         andn    r2,top8         ' combine data ...
01cb8 32e f5400427         or      r2,t1           ' ... with request code
01cbc 32f          pcog
01cbc 32f f5040007         and     r0,#7           ' mask off cog id to 0 .. 7
01cc0 330 f0640002         shl     r0,#2           ' point to ...
01cc4 331 f1000055         add     r0,reg          ' ... registry entry for the cog
01cc8 332 fb000000         rdlong  r0,r0           ' get request block from registry
01ccc 333 f7c80022         test    r0,top8 wz      ' is a plugin registered in this cog?
01cd0 334 ad900024  if_z   jmp     #plugerr        ' no - throw error
01cd4 335 f5200022         andn    r0,top8         ' yes - write ...
01cd8 336 fc600400         wrlong  r2,r0           ' ... request
01cdc 337          ploop
01cdc 337 fb080600         rdlong  r3,r0   wz      ' wait till ...
01ce0 338 5d9ffff8  if_nz  jmp     #ploop          ' ... request completed
01ce4 339 f1040004         add     r0,#4           ' get ...
01ce8 33a fb000000         rdlong  r0,r0           ' ... result
01cec 33b          clr_lock
01cec 33b f7cc5408         test    t4,#8 wz        ' did we set a lock?
01cf0 33c ad605407  if_z   lockrel t4              ' yes - release the lock we set
01cf4 33d fd64002d         ret
01cf8 33e          plugerr
01cf8 33e f6640001         neg     r0,#1           ' plugin error (e.g. not registered)
01cfc 33f fd9fffec         jmp     #clr_lock       ' done - clear lock if required
                   
                   ' do_register - register a plugin
                   '
                   ' On entry:
                   '
                   '        r0 - initial value to write to request block
                   '        r1 - cog to register (lost)
                   '        r3 - plugin type to register (lost)
                   
01d00 340          do_register
01d00 340 f0640202         shl     r1, #2          ' register ...
01d04 341 ff0003df         add     r1, ##REGISTRY  ' ... plugin ...
01d08 342 f10403b0 
01d0c 343 fb000401         rdlong  r2, r1          ' ...
01d10 344 ff007fff         and     r2, ##$00FFFFFF ' ... as ...
01d14 345 f50405ff 
01d18 346 f0640618         shl     r3, #24         ' ...
01d1c 347 f5400403         or      r2, r3          ' ...
01d20 348 fc600401         wrlong  r2, r1          ' ... plugin type
01d24 349 0c600002   _ret_ wrlong  r0, r2          ' save in request block
                   
                   '
                   ' do_copy
                   '
                   ' On entry:
                   '
                   '       r0 - dst addr
                   '       r1 - number of bytes to copy
                   '       r2 - src addr
                   '
                   ' On exit:
                   '
                   '       r0 incremented by r1 (i.e. number of bytes)
                   '       r3 lost
                   
01d28 34a          do_copy
01d28 34a fac00602        rdbyte  r3, r2           '
01d2c 34b fc400600        wrbyte  r3, r0
01d30 34c f1040001        add     r0, #1
01d34 34d f1040401        add     r2, #1
01d38 34e fb6c03fb        djnz    r1, #do_copy     '
01d3c 34f fd64002d        ret
                   
                   
                   
                   '#line 42 "../../../target_p2/Catalina_CMM_library.spin2"
                   
                   '#line 1 "../../../target_p2/Catalina_CMM_kernel_library.inc"
                   ' Catalina kernel functions that are specific to the CMM kernels ...
                   
                   ' avoid including the kernel library functions twice ...
                   
                   
                   
                   
                   DAT
                   
                   
                   
                   
                   
                   
                   
                   
                   
                   
                   
                   
                   
                   
                   
                   
                   
                   
                   
                   
                   
                   
                   
                   
                   
                   
                   
                   
                   
                   
                   
                   
                   
                   
                   
                   
                   
                   
                   
                   
                   
                   
                   
                   
                   
                   
                   
                   
                   
                   
                   
                   
                   
                   
                   
                   
                   
                   
                   
                   
                   
                   
                   
                   
                   
                   
                   
                   
                   
                   
                   
                   
                   
                   
                   
                   
                   
                   
                   
                   
                   
                   
                   
                   
                   
                   
                   
                   
                   
                   '#line 44 "../../../target_p2/Catalina_CMM_library.spin2"
                   
                   
                   
                   
                   
01d40 350          LUT_LIBRARY_END
                   
01d40 350           fit $400
                   
01d40 350          Catalina_Cnst
01d40 350          Catalina_RO_Ends
01d40 350          Catalina_RW_Base
01d40 350          Catalina_Init
01d40 350          Catalina_Data
01d40 350          Catalina_RW_Ends
01d40 350          Catalina_Ends
                   
                   ' Include the appropriate CMM Kernel (to define offsets etc) ...
                   
                   
                   
                   
                   '#line 1 "../../../target_p2/Catalina_CMM_dynamic.spin2"
                   {{
                   '------------------------------------------------------------------------------
                   ' Catalina_CMM_dynamic - Implements a dynamically loadable Compact Memory
                   '                Model Kernel intended for use by the Catalina Code Generator
                   '                backend for LCC.
                   '
                   ' Version 3.8 - initial version - by Ross Higson
                   ' Version 3.13 - combine floating point operations, and add relative jumps
                   ' Version 3.15 - Modified for 1 .
                   '
                   '------------------------------------------------------------------------------
                   '
                   '    Copyright 2012 Ross Higson
                   '
                   '    This file is part of the Catalina Target Package.
                   '
                   '    The Catalina Target Package is free software: you can redistribute
                   '    it and/or modify it under the terms of the GNU Lesser General Public
                   '    License as published by the Free Software Foundation, either version
                   '    3 of the License, or (at your option) any later version.
                   '
                   '    The Catalina Target Package is distributed in the hope that it will
                   '    be useful, but WITHOUT ANY WARRANTY; without even the implied warranty
                   '    of MERCHANTABILITY or FITNESS FOR A PARTICULAR PURPOSE.
                   '    See the GNU Lesser General Public License for more details.
                   '
                   '    You should have received a copy of the GNU Lesser General Public
                   '    License along with the Catalina Target Package.  If not, see
                   '    <http:
                   '
                   '------------------------------------------------------------------------------
                   }}
                   
                   '--------------------- Start of CMM Kernel ------------------------------------
                   
                   CON
                   
                   '#line 1 "../../../target_p2/Catalina_constants.inc"
                   '--------------------------- START OF CONSTANTS -------------------------------
                   
                   
                   
                   ' stop multiple inclusions of constants ...
                   
                   
                   
                   '#line 1 "../../../target_p2/Catalina_platforms.inc"
                   
                   
                   ' stop multiple inclusions of platform constants ...
                   
                   
                   
                   
                   '--------------------------- START OF PLATFORM CONSTANTS ---------------------
                   '
                   CON
                   
                   
                   
                   
                   
                   
                   
                   
                   
                   
                   
                   
                   
                   
                   
                   
                   
                   
                   
                   
                   
                   
                   
                   
                   
                   
                   
                   
                   
                   
                   
                   
                   
                   
                   
                   
                   
                   
                   
                   
                   
                   
                   
                   
                   
                   
                   
                   
                   
                   
                   
                   
                   
                   
                   
                   
                   
                   
                   
                   
                   
                   
                   
                   
                   
                   
                   
                   
                   
                   
                   
                   
                   
                   
                   
                   
                   
                   
                   
                   
                   
                   
                   
                   
                   
                   
                   
                   
                   
                   
                   
                   
                   
                   
                   
                   
                   
                   
                   
                   
                   
                   
                   
                   
                   
                   
                   
                   
                   
                   
                   
                   
                   
                   
                   
                   
                   
                   
                   
                   
                   
                   
                   
                   
                   
                   
                   
                   
                   
                   
                   
                   
                   
                   
                   
                   
                   
                   
                   
                   
                   
                   
                   
                   
                   
                   
                   
                   
                   
                   
                   
                   
                   
                   
                   
                   
                   
                   
                   
                   
                   
                   
                   
                   
                   
                   
                   
                   
                   
                   
                   
                   
                   
                   
                   
                   
                   
                   
                   
                   
                   
                   
                   
                   
                   
                   
                   
                   
                   
                   
                   
                   
                   
                   
                   
                   
                   
                   
                   
                   
                   
                   
                   
                   
                   
                   
                   
                   
                   
                   
                   
                   
                   
                   
                   
                   
                   
                   
                   
                   
                   
                   
                   
                   
                   
                   
                   
                   
                   
                   
                   
                   
                   
                   
                   
                   
                   
                   
                   
                   
                   
                   
                   
                   
                   
                   
                   
                   
                   
                   
                   
                   
                   
                   
                   
                   
                   
                   
                   
                   
                   
                   
                   
                   
                   
                   
                   
                   
                   
                   
                   
                   
                   
                   
                   
                   
                   
                   
                   
                   
                   
                   
                   
                   
                   
                   
                   
                   
                   
                   
                   
                   
                   
                   
                   
                   
                   
                   
                   
                   
                   
                   
                   
                   
                   
                   
                   
                   
                   
                   
                   
                   
                   
                   
                   
                   
                   
                   
                   
                   
                   
                   
                   
                   
                   
                   
                   
                   
                   
                   
                   
                   
                   
                   
                   
                   
                   
                   
                   
                   
                   
                   
                   
                   
                   
                   
                   
                   
                   
                   
                   
                   
                   
                   
                   
                   
                   
                   
                   
                   
                   
                   
                   
                   
                   
                   
                   
                   
                   
                   
                   
                   
                   
                   
                   
                   
                   
                   
                   
                   
                   
                   
                   
                   
                   
                   
                   
                   
                   
                   
                   
                   
                   
                   
                   
                   
                   
                   
                   
                   
                   
                   
                   
                   
                   
                   
                   
                   
                   
                   
                   
                   
                   
                   
                   
                   
                   
                   
                   
                   
                   
                   
                   
                   
                   
                   
                   
                   
                   
                   
                   
                   
                   
                   
                   
                   
                   
                   
                   
                   
                   
                   
                   
                   
                   
                   
                   
                   
                   
                   
                   
                   
                   
                   
                   
                   
                   
                   
                   
                   
                   
                   
                   
                   
                   
                   
                   
                   
                   
                   
                   
                   
                   
                   
                   
                   
                   
                   
                   
                   
                   
                   
                   
                   
                   
                   
                   
                   
                   
                   
                   
                   
                   
                   
                   
                   
                   
                   
                   
                   
                   
                   
                   
                   
                   
                   
                   
                   
                   
                   
                   
                   
                   
                   
                   
                   
                   
                   
                   
                   
                   
                   
                   
                   
                   
                   
                   
                   
                   
                   
                   
                   
                   
                   
                   
                   
                   
                   
                   
                   
                   
                   
                   
                   
                   
                   
                   
                   
                   
                   
                   
                   
                   
                   
                   
                   
                   
                   
                   
                   
                   
                   
                   '---------------- default constants (same as P2_EVAL) -------------------------
                   
                   ' clock configuration constants
                   
                   
                   
                   
                   
                   
                   
                   
                   
                   
                   
                   
                   
                   
                   
                   
                   
                   
                   _XTALFREQ = 20_000_000  ' crystal frequency
                   _XDIV     = 4           '\ crystal divider             to give 5.0MHz
                   _XMUL     = 72          '| crystal / div * mul         to give 360MHz
                   _XDIVP    = 2           '/ crystal / div * mul / divp  to give 180MHz
                   _XOSC     = %10         ' %00=OFF, %01=OSC, %10=15pF, %11=30pF
                   _XSEL     = %11         ' %00=rcfast, %01=rcslow, %10=XI, %11=PLL
                   _XPLL     = 1           ' 0= PLL off, 1=PLL on
                   
                   
                   ' serial constants
                   
                   _RX_PIN    = 63
                   _TX_PIN    = 62
                   _BAUDRATE  = 230400
                   
                   ' BlackCat Debugger I/O constants
                   
                   
                   
                   
                   _BLACKCAT_MODE    = %0000
                   _BLACKCAT_BAUD    = 115200
                   _BLACKCAT_SIZE    = 5*4   ' 5 longs
                   
                   ' SD Card constants
                   
                   _SD_CK     = 61         'pin SD Card clock
                   _SD_CS     = 60         'pin SD Card select
                   _SD_DI     = 59         'pin SD Card MOSI
                   _SD_DO     = 58         'pin SD Card MISO
                   
                   ' 2 Port Serial constants
                   
                   _RX1_PIN   = _RX_PIN
                   _TX1_PIN   = _TX_PIN
                   _RX1_MODE  = %0000_0000_000_0000000000000_00_11111_0 ' async rx mode, true input, input  enabled for smart input
                   _TX1_MODE  = %0000_0000_000_0000000000000_01_11110_0 ' async tx mode, true output, output enabled for smart output
                   _BAUDRATE1 = _BAUDRATE
                   _RX2_PIN   = 50
                   _TX2_PIN   = 52
                   _RX2_MODE  = %0000_0000_000_0000000000000_00_11111_0 ' async rx mode, true input, input  enabled for smart input
                   _TX2_MODE  = %0000_0000_000_0000000000000_01_11110_0 ' async tx mode, true output, output enabled for smart output
                   _BAUDRATE2 = _BAUDRATE
                   
                   ' Multi Port Serial constants
                   
                   ' NOTE Multi Port 1 and 2 use the 2 Port Serial constants defined above for pins and baud rate (but not mode) -
                   ' This is done so that by default the Multi Port Serial plugin behaves the same way as the 2 Port Serial plugin.
                   ' To disable thiis "auto-configuration" behaviour, set the pins to -1 (or anything outside the range 0 .. 63).
                   ' All such ports will have to be manually configured in the C program (see the s8_openport() function).
                   
                   '    rxmode = %0xx1 = invert rx              (same for txmode)
                   '             %0x1x = invert tx
                   '             %01xx = open-drain/open-source tx
                   
                   _RX1_MULTI_PIN  = _RX1_PIN
                   _TX1_MULTI_PIN  = _TX1_PIN
                   _RX1_MULTI_BAUD = _BAUDRATE
                   _TX1_MULTI_BAUD = _BAUDRATE
                   _RX1_MULTI_MODE = %0000
                   _TX1_MULTI_MODE = %0000
                   _RX2_MULTI_PIN  = _RX2_PIN
                   _TX2_MULTI_PIN  = _TX2_PIN
                   _RX2_MULTI_BAUD = _BAUDRATE
                   _TX2_MULTI_BAUD = _BAUDRATE
                   _RX2_MULTI_MODE = %0000
                   _TX2_MULTI_MODE = %0000
                   _RX3_MULTI_PIN  = -1
                   _TX3_MULTI_PIN  = -1
                   _RX3_MULTI_BAUD = _BAUDRATE
                   _TX3_MULTI_BAUD = _BAUDRATE
                   _RX3_MULTI_MODE = %0000
                   _TX3_MULTI_MODE = %0000
                   _RX4_MULTI_PIN  = -1
                   _TX4_MULTI_PIN  = -1
                   _RX4_MULTI_BAUD = _BAUDRATE
                   _TX4_MULTI_BAUD = _BAUDRATE
                   _RX4_MULTI_MODE = %0000
                   _TX4_MULTI_MODE = %0000
                   _RX5_MULTI_PIN  = -1
                   _TX5_MULTI_PIN  = -1
                   _RX5_MULTI_BAUD = _BAUDRATE
                   _TX5_MULTI_BAUD = _BAUDRATE
                   _RX5_MULTI_MODE = %0000
                   _TX5_MULTI_MODE = %0000
                   _RX6_MULTI_PIN  = -1
                   _TX6_MULTI_PIN  = -1
                   _RX6_MULTI_BAUD = _BAUDRATE
                   _TX6_MULTI_BAUD = _BAUDRATE
                   _RX6_MULTI_MODE = %0000
                   _TX6_MULTI_MODE = %0000
                   _RX7_MULTI_PIN  = -1
                   _TX7_MULTI_PIN  = -1
                   _RX7_MULTI_BAUD = _BAUDRATE
                   _TX7_MULTI_BAUD = _BAUDRATE
                   _RX7_MULTI_MODE = %0000
                   _TX7_MULTI_MODE = %0000
                   _RX8_MULTI_PIN  = -1
                   _TX8_MULTI_PIN  = -1
                   _RX8_MULTI_BAUD = _BAUDRATE
                   _TX8_MULTI_BAUD = _BAUDRATE
                   _RX8_MULTI_MODE = %0000
                   _TX8_MULTI_MODE = %0000
                   
                   ' VGA constants
                   
                   _VGA_BASE_PIN = 32
                   
                   ' USB constants
                   
                   _USB_BASE_PIN = 40
                   
                   ' miscellaneous constants
                   
                   _DEBUG_PIN = 56
                   
                   
                   
                   '--------------------------- END OF PLATFORM CONSTANTS -----------------------
                   
                   
                   
                   '#line 10 "../../../target_p2/Catalina_constants.inc"
                   
                   CON
                   '
                   ' Platform-independent clock configuration constants
                   '
                   _XPPPP    = ((_XDIVP>>1) + 15) & $F  ' 1->15, 2->0, 4->1, 6->2...30->14
                   
                   ' %0000_000e_dddddd_mmmmmmmmmm_pppp_cc_ss  ' set clock oscillator mode
                   
                   ' initial clock mode => enable crystal+PLL, stay in 20MHz+
                   
                   _CLOCKINIT  = _XPLL<<24 + (_XDIV-1)<<18 + (_XMUL-1)<<8 + _XPPPP<<4 + _XOSC<<2 + %00
                   
                   ' wait time => 10ms (@ 20Mhz) for crystal+PLL to stabilize
                   
                   _CLOCKWAIT  = 20000000/100
                   
                   ' final clock mode => switch to PLL
                   
                   _CLOCKMODE  = _XPLL<<24 + (_XDIV-1)<<18 + (_XMUL-1)<<8 + _XPPPP<<4 + _XOSC<<2 +_XSEL
                   
                   ' final clock frequency
                   
                   _CLOCKFREQ  = _XTALFREQ / _XDIV * _XMUL / _XDIVP
                   
                   '
                   ' Plugin types - the Catalina Kernel generally attempts to locate plugins
                   ' by type, not by the cog they happen to be running on. Values up to 127
                   ' and the value 255 are reserved.
                   '
                   ' User plugin types should be in the range 128 .. 254. Note that the LMM
                   ' prefix is historical - the same definitions are used for all program
                   ' types (LMM, EMM, SMM, XMM etc).
                   '
                   LMM_VMM = 0       ' main LMM (single threaded)
                   LMM_HMI = 1       ' HMI Drivers (Kbd/Mouse/Screen)
                   LMM_LIB = 2       ' Utility library
                   LMM_FLA = 3       ' Floating Point Library A
                   LMM_FLB = 4       ' Floating Point Library B
                   LMM_RTC = 5       ' Real-Time Clock
                   LMM_FIL = 6       ' File System
                   LMM_SIO = 7       ' Serial I/O
                   LMM_DUM = 8       ' Dummy Plugin
                   LMM_CGI = 9       ' Graphics Plugin
                   LMM_KBD = 10      ' Keyboard Driver
                   LMM_SCR = 11      ' Screen Driver
                   LMM_MOU = 12      ' Mouse Driver
                   LMM_PRX = 13      ' Proxy Driver
                   LMM_GAM = 14      ' Gamepad Driver
                   LMM_SND = 15      ' Sound Driver
                   LMM_ADC = 16      ' ADC Driver
                   LMM_S4  = 17      ' 4 Port Serial Driver (Propeller 1 only)
                   LMM_TTY = 18      ' Full Duplex Serial Driver
                   LMM_VGI = 19      ' Virtual Graphics Plugin
                   LMM_VDB = 20      ' Virtual Double Buffer Support Driver
                   LMM_SPI = 21      ' SPI Support Driver
                   LMM_FLC = 22      ' Floating Point Library C (Propeller 2 only)
                   LMM_S2A = 23      ' 2 Port Serial Driver A (Propeller 2 only)
                   LMM_S2B = 24      ' 2 Port Serial Driver B (Propeller 2 only)
                   LMM_S8A = 25      ' 8 Port Serial Driver A (Propeler 2 only)
                   LMM_NUL = 255     ' No plugin
                   '
                   ' Notes on the Registry definitions.
                   '
                   ' The Catalina registry provides a place where all plugins can be found,
                   ' and a request block for sending requests to each plugin. The registry
                   ' location must be known to all plugins. To use the registry, each plugin
                   ' finds its own cog number, and then registers by putting its plugin type
                   ' in the top 8 bits of the long at
                   '    long[REGISTRY][cog]
                   ' The bottom 24 bits of that long point to the request block the plugin
                   ' must use to receive requests and return results. A request block of
                   ' two longs is automatically created for each plugin, but plugins that
                   ' need more are free to allocate their own. However, all request blocks
                   ' must be at least two longs - the first long is the request, which may
                   ' be a 'short' request (if the request and all its parameters can fit
                   ' into a single long, or the address of a 'long' parameter block that
                   ' is allocated elsewhere in Hub RAM. Note that all requests are plugin
                   ' specific, and each plugin only typically knows how to interpret its
                   ' own requests. When complete, the plugin zeroes the first long of the
                   ' request block, and may either return the result in the second long
                   ' of the request block (typical for ' short' requests, but also used
                   ' for some 'long' requests), or in the 'long' parameter block.
                   ' Below the cog-oriented registry is a service-oriented registry. Each
                   ' Service is allocated a word, and services go from 1 to SVC_MAX (i.e.
                   ' there is no service 0). The details of the service can be found in
                   ' the word at
                   '    word[REGISTRY][-service]
                   ' The top 4 bits of the word are the cog number (top bit of the 4 bits
                   ' set if not used), the next lower 4 bits are a lock number (top bit of
                   ' the 4 set if not required) and the lower 8 bits are the request number
                   ' to send to the cog to request the service.
                   '
                   ' Predefined Service Numbers (and the internal plugin types and requests):
                   '
                   SVC_FLOAT_ADD    = 1  ' LMM_FLA 1
                   SVC_FLOAT_SUB    = 2  ' LMM_FLA 2
                   SVC_FLOAT_MUL    = 3  ' LMM_FLA 3
                   SVC_FLOAT_DIV    = 4  ' LMM_FLA 4
                   SVC_FLOAT_FLOAT  = 5  ' LMM_FLA 5
                   SVC_FLOAT_TRUNC  = 6  ' LMM_FLA 6
                   SVC_FLOAT_RND    = 7  ' LMM_FLA 7
                   SVC_FLOAT_SQR    = 8  ' LMM_FLA 8
                   SVC_FLOAT_CMP    = 9  ' LMM_FLA 9
                   SVC_K_PRESENT    = 10 ' LMM_HMI 1
                   SVC_K_GET        = 11 ' LMM_HMI 2
                   SVC_K_WAIT       = 12 ' LMM_HMI 3
                   SVC_K_NEW        = 13 ' LMM_HMI 4
                   SVC_K_READY      = 14 ' LMM_HMI 5
                   SVC_K_CLEAR      = 15 ' LMM_HMI 6
                   SVC_K_STATE      = 16 ' LMM_HMI 7
                   SVC_M_PRESENT    = 17 ' LMM_HMI 11
                   SVC_M_BUTTON     = 18 ' LMM_HMI 12
                   SVC_M_BUTTONS    = 19 ' LMM_HMI 13
                   SVC_M_ABS_X      = 20 ' LMM_HMI 14
                   SVC_M_ABS_Y      = 21 ' LMM_HMI 15
                   SVC_M_ABS_Z      = 22 ' LMM_HMI 16
                   SVC_M_DELTA_X    = 23 ' LMM_HMI 17
                   SVC_M_DELTA_Y    = 24 ' LMM_HMI 18
                   SVC_M_DELTA_Z    = 25 ' LMM_HMI 19
                   SVC_M_RESET      = 26 ' LMM_HMI 20
                   SVC_T_GEOMETRY   = 27 ' LMM_HMI 21
                   SVC_T_CHAR       = 28 ' LMM_HMI 22
                   SVC_T_STRING     = 29 ' LMM_HMI 23
                   SVC_T_INT        = 30 ' LMM_HMI 24
                   SVC_T_UNSIGNED   = 31 ' LMM_HMI 25
                   SVC_T_HEX        = 32 ' LMM_HMI 26
                   SVC_T_BIN        = 33 ' LMM_HMI 27
                   SVC_T_SETPOS     = 34 ' LMM_HMI 28
                   SVC_T_GETPOS     = 35 ' LMM_HMI 29
                   SVC_T_MODE       = 36 ' LMM_HMI 30
                   SVC_T_SCROLL     = 37 ' LMM_HMI 31
                   SVC_T_COLOR      = 38 ' LMM_HMI 32
                   SVC_SD_INIT      = 39 ' LMM_FIL 1
                   SVC_SD_READ      = 40 ' LMM_FIL 2
                   SVC_SD_WRITE     = 41 ' LMM_FIL 3
                   SVC_SD_BYTEIO    = 42 ' LMM_FIL 4
                   SVC_SD_STOPIO    = 43 ' LMM_FIL 5
                   SVC_RTC_DEBUG    = 44 ' LMM_RTC 10 or RTC_FIL 10
                   SVC_RTC_SETFREQ  = 45 ' LMM_RTC 6 or RTC_FIL 6
                   SVC_RTC_GETCLOCK = 46 ' LMM_RTC 7 or RTC_FIL 7
                   SVC_RTC_SETTIME  = 47 ' LMM_RTC 8 or RTC_FIL 8
                   SVC_RTC_GETTIME  = 48 ' LMM_RTC 9 or RTC_FIL 9
                   SVC_FLOAT_SIN    = 49 ' LMM_FLA 10
                   SVC_FLOAT_COS    = 50 ' LMM_FLA 11
                   SVC_FLOAT_TAN    = 51 ' LMM_FLA 12
                   SVC_FLOAT_LOG    = 52 ' LMM_FLA 13
                   SVC_FLOAT_LOG10  = 53 ' LMM_FLA 14
                   SVC_FLOAT_EXP    = 54 ' LMM_FLA 15
                   SVC_FLOAT_EXP10  = 55 ' LMM_FLA 16
                   SVC_FLOAT_POW    = 56 ' LMM_FLA 17
                   SVC_FLOAT_FRAC   = 57 ' LMM_FLA 18
                   SVC_FLOAT_FMOD   = 58 ' LMM_FLB 19
                   SVC_FLOAT_ASIN   = 59 ' LMM_FLB 20
                   SVC_FLOAT_ACOS   = 60 ' LMM_FLB 21
                   SVC_FLOAT_ATAN   = 61 ' LMM_FLB 22
                   SVC_FLOAT_ATAN2  = 62 ' LMM_FLB 23
                   SVC_FLOAT_FLOOR  = 63 ' LMM_FLB 24
                   SVC_FLOAT_CEIL   = 64 ' LMM_FLB 25
                   SVC_T_COLOR_FG   = 65 ' LMM_HMI 33
                   SVC_T_COLOR_BG   = 66 ' LMM_HMI 34
                   '
                   SVC_RESERVED     = 80 ' Services 1..80 reserved for Catalina
                   
                   ' Floating point constants
                   
                   pi = 3.141592654
                   
                   FAddCmd       = 1 << 24       ' Implemented in Float32_A and Float32_B
                   FSubCmd       = 2 << 24       ' Implemented in Float32_A and Float32_B
                   FMulCmd       = 3 << 24       ' Implemented in Float32_A and Float32_B
                   FDivCmd       = 4 << 24       ' Implemented in Float32_A and Float32_B
                   FFloatCmd     = 5 << 24       ' Implemented in Float32_A and Float32_B
                   FTruncCmd     = 6 << 24       ' Implemented in Float32_A and Float32_B
                   FRoundCmd     = 7 << 24       ' Implemented in Float32_A and Float32_B
                   FSqrCmd       = 8 << 24       ' Implemented in Float32_A and Float32_B
                   FCmpCmd       = 9 << 24       ' Implemented in Float32_A and Float32_B
                   
                   SinCmd        = 10 << 24      ' Implemented in Float32_A
                   CosCmd        = 11 << 24      ' Implemented in Float32_A
                   TanCmd        = 12 << 24      ' Implemented in Float32_A
                   LogCmd        = 13 << 24      ' Implemented in Float32_A
                   Log10Cmd      = 14 << 24      ' Implemented in Float32_A
                   ExpCmd        = 15 << 24      ' Implemented in Float32_A
                   Exp10Cmd      = 16 << 24      ' Implemented in Float32_A
                   PowCmd        = 17 << 24      ' Implemented in Float32_A
                   FracCmd       = 18 << 24      ' Implemented in Float32_A
                   
                   FModCmd       = 19 << 24      ' Implemented in Float32_B
                   ASinCmd       = 20 << 24      ' Implemented in Float32_B
                   ACosCmd       = 21 << 24      ' Implemented in Float32_B
                   ATanCmd       = 22 << 24      ' Implemented in Float32_B
                   ATan2Cmd      = 23 << 24      ' Implemented in Float32_B
                   FloorCmd      = 24 << 24      ' Implemented in Float32_B
                   CeilCmd       = 25 << 24      ' Implemented in Float32_B
                   
                   SignFlag      = $1
                   ZeroFlag      = $2
                   NaNFlag       = $8
                   
                   ' CogStore constants
                   
                   MAX_LONGS  = 300                ' store up to 300 LONGS (1200 chars)
                   
                   CMD_READ   = $1000_0000         ' copy Hub to Cog (address in lower 24 bits)
                                                   ' COGSTORE set to zero when complete
                   
                   CMD_WRITE  = $2000_0000         ' copy Cog to Hub (address in lower 24 bits)
                                                   ' COGSTORE set to zero when complete
                   
                   CMD_SIZE   = $3000_0000         ' return size of stored data (in LONGs) - set
                                                   ' lower 24 bits to $FFFFFF on call - lower 24
                                                   ' bits (set to size when complete)
                   
                   CMD_SETUP  = $4000_0000         ' setup argc and argv array with the stored
                                                   ' data (set to zero when complete)
                   
                   CMD_STOP   = $5000_0000         ' stop the CogStore cog.
                   
                   CMD_RESPONSE = $FEED_FACE       ' COGSTORE set to this on any other command
                   
                   STORE_COG    = 7                ' Catalina CogStore will use this cog
                   LAST_COG     = 6                ' Last cog to be restarted is 6
                   QUOTE_CHAR = $22
                   
                   '------------------------------- HUB CONSTANTS -------------------------------
                   '
                   CON
                   '
                   ' Maximum number of cogs (note that this 1 may not have them all!)
                   '
                   MAX_COGS   = 16
                   
                   ' HUB RAM Definitions
                   '
                   '   (make sure these are the same in all targets)
                   '
                   ' Size of Service array (if this changes, the Hub Layout below must change
                   ' as well):
                   '
                   SVC_MAX    = 96                ' must be a multiple of 2
                   '
                   ' Size of ARGV array (if this changes, the Hub Layout below must change
                   '  as well):
                   '
                   ARGV_MAX   = 24                ' maximum size (LONGs) of argv array
                   '
                   ' Base Address for all hub programs (on the 1 this is genrally zero)
                   '
                   BASE_ADDR  = $00000
                   '
                   ' Useable Hub RAM (The 1 has 512Kb but the top 16Kb hold a copy of the boot ROM)
                   '
                   HUB_SIZE   = $7C000            ' the last 16K contain a copy of the boot ROM.
                   '
                   FREE_MEM   = HUB_SIZE-4                               ' $7BFFC the FREE_MEM pointer
                   '
                   ' <<< ALLOCATE OTHER RESERVED HUB LOCATIONS DOWN FROM HERE >>>
                   '
                   COGSTORE        = FREE_MEM - 4                        ' $7BFF8 CHECK Catalyst_Arguments.spin
                   XMM_CACHE_RSP   = COGSTORE - 4                        ' $7BFF4
                   XMM_CACHE_CMD   = XMM_CACHE_RSP - 4                   ' $7BFF0
                   REGISTRY        = XMM_CACHE_CMD - MAX_COGS*4          ' $7BFB0 CHECK registry.e
                   REQUESTS        = REGISTRY - 2*SVC_MAX - MAX_COGS*4*2 ' $7BE70 CHECK request_status.e
                   ARGV_0          = REQUESTS - ARGV_MAX*4               ' $7BE10 CHECK Catalyst_Arguments.spin2
                   ARGV_ADDR       = ARGV_0 - 4                          ' $7BE0C CHECK Catalyst_Arguments.spin2
                   ARGC_ADDR       = ARGV_ADDR - 4                       ' $7BE08 CHECK Catalyst_Arguments.spin2, blackbox_comms.c, catalina_default.s, catalina_blackcat.s (all targets)
                   DEBUG_FLAG      = ARGC_ADDR - 16                      ' $7BDF8 CHECK blackbox_comms.c, BlackCat_DebugCog.spin2 & catalina_blackcat.s (all targets)
                   DEBUG_IN        = DEBUG_FLAG - 4                      ' $7BDF4 CHECK blackbox_comms.c, BlackCat_DebugCog.spin2 & catalina_blackcat.s (all targets)
                   DEBUG_OUT       = DEBUG_IN - 4                        ' $7BDF0 CHECK blackbox_comms.c, BlackCat_DebugCog.spin2 & catalina_blackcat.s (all targets)
                   DEBUG_ADDR      = DEBUG_OUT - 4                       ' $7BDEC CHECK blackbox_comms.c, BlackCat_DebugCog.spin2 & catalina_blackcat.s (all targets)
                   DEBUG_BREAK     = DEBUG_ADDR - 4                      ' $7BDE8 CHECK blackbox_comms.c, BlackCat_DebugCog.spin2 & catalina_blackcat.s (all targets)
                   PROXY_XFER      = DEBUG_BREAK - 4                     ' $7BDE4
                   CGI_DATA        = PROXY_XFER - 4                      ' $7BDE0 CHECK cgi_data.e
                   '
                   HUB_TOP         = CGI_DATA                            ' used to initialize FREE_MEM
                   '
                   ' For loading programs from SD card, the key decision is how large a program
                   ' we want to be able to load, because the larger the program, the more Hub RAM
                   ' space it takes to store the cluster list for it. The following calculations
                   ' determine how much Hub RAM space to allocate for a particular load size,
                   ' assuming FAT32 is in use and we have a cluster size of 32768 (note that
                   ' smaller clusters will result in correspondingly smaller load sizes):
                   '
                   MAX_LOAD_SIZE  = 4194304                       ' we want 4MB loads (2^22 bytes)
                                                                  ' (if this is changed, check catalyst.h
                                                                  ' and Catalina_SD_Loader.spin)
                   MAX_CLUS_SIZE  = 32768                         ' assumed cluster size (2^15 bytes)
                   MAX_FLIST_SIZE = MAX_LOAD_SIZE/MAX_CLUS_SIZE   ' number of entries in cluster list (2^7)
                   '
                   FLIST_LOG2     = 9                             ' LOG (Base 2) of sector size
                   FLIST_SSIZ     = 1<<FLIST_LOG2                 ' size of sector
                   '
                   ' Now resume defining Loadtime Hub Layout (note overlap with registry!!!):
                   '
                   FLIST_ADDRESS  = ARGC_ADDR - (4*MAX_FLIST_SIZE)     ' $7BC08 check catalyst.h
                   FLIST_BUFF     = FLIST_ADDRESS - FLIST_SSIZ         ' $7BA08 check catalyst.h
                   FLIST_SIOB     = FLIST_BUFF - 68                    ' $7B9C4 check catalyst.h
                   FLIST_XFER     = FLIST_SIOB - 12                    ' $7B9B8 check catalyst.h
                   FLIST_SECT     = FLIST_XFER - 4                     ' $7B9B4 check catalyst.h
                   FLIST_SHFT     = FLIST_SECT - 4                     ' $7B9B0 check catalyst.h
                   FLIST_FSIZ     = FLIST_SHFT - 4                     ' $7B9AC check catalyst.h
                   FLIST_PSTK     = FLIST_FSIZ - 4                     ' $7B9A8 check catalyst.h
                   FLIST_PREG     = FLIST_PSTK - 4                     ' $7B9A4 check catalyst.h
                   
                   
                   '--------------------------- END OF CONSTANTS ---------------------------------
                   
                   
                   
                   '#line 39 "../../../target_p2/Catalina_CMM_dynamic.spin2"
                   
                   ' The symbol FCACHE_PRIMITIVE adds code to implement FCACHE - this can be done
                   ' outside the kernel, but including it in the kenel is more efficient - but it
                   ' adds 9 longs to the kernel:
                   
                   
                   
                   ' The symbol UNROLL_LMM_LOOP does just what it says - but it adds extra
                   ' longs to the CMM kernel. The default is to unroll 2 times if this is not
                   ' defined, or to unroll 4 times if it is defined :
                   
                   '#define UNROLL_LMM_LOOP
                   
                   ' The symbol EXTERNAL_FLT_CMP forces the flt_cmp operation to the external
                   ' FLOAT32_A plugin. This is because the CMM kernel is slightly too large to
                   ' fit it in (until we manage to save 5 or so longs):
                   
                   
                   
                   ' The symbol BLACKBOX updates the PC_OFFS on each instruction (whereas the PC
                   ' is only updated after reading each long). This is required for the BlackBox
                   ' debugger. Normally, this symbol is defined automatically when programs are
                   ' compiled with -g, so this symbol should not be defined manually:
                   
                   '#define BLACKBOX
                   
                   ' instruction operand shifts
                   
                   S16A = 1  ' must match catalina_compact.inc
                   D16A = 6  ' must match catalina_compact.inc
                   S16B = 2  ' must match catalina_compact.inc
                   D16B = 2  ' must match catalina_compact.inc
                   S32  = 2  ' must match catalina_compact.inc
                   D32  = 11 ' must match catalina_compact.inc
                   D32S = 21 ' must match catalina_compact.inc
                   
                   ' NO_INTERRUPTS - if defined, we can the use SKIPF because this code will not
                   '                 be used in an interrupt service routine. Can be defined here
                   '                 or on the command-line (i.e. -C NO_INTERRUPTS)
                   
                   '#ifndef NO_INTERRUPTS
                   '#define NO_INTERRUPTS
                   '#endif
                   
                   '--------------------- Start of CMM Dynamic Kernel ----------------------------
                   
                   DAT
01d40 000                   org     0
                   
                   ' the first $52 longs must be in the same place in all CMM kernels, to
                   ' allow for the separate compilation of code that uses these locations
                   
01d40 000 fd900154 r0       jmp     #cmm_init      '$00
01d44 001 00000000 r1       long    0              '$01
01d48 002 00000000 r2       long    0              '$02
01d4c 003 00000000 r3       long    0              '$03
01d50 004 00000000 r4       long    0              '$04
01d54 005 00000000 r5       long    0              '$05
01d58 006 00000000 r6       long    0              '$06
01d5c 007 00000000 r7       long    0              '$07
01d60 008 00000000 r8       long    0              '$08
01d64 009 00000000 r9       long    0              '$09
01d68 00a 00000000 r10      long    0              '$0a
01d6c 00b 00000000 r11      long    0              '$0b
01d70 00c 00000000 r12      long    0              '$0c
01d74 00d 00000000 r13      long    0              '$0d
01d78 00e 00000000 r14      long    0              '$0e
01d7c 00f 00000000 r15      long    0              '$0f
01d80 010 00000000 r16      long    0              '$10
01d84 011 00000000 r17      long    0              '$11
01d88 012 00000000 r18      long    0              '$12
01d8c 013 00000000 r19      long    0              '$13
01d90 014 00000000 r20      long    0              '$14
01d94 015 00000000 r21      long    0              '$15
01d98 016 00000000 r22      long    0              '$16
01d9c 017 00000000 r23      long    0              '$17
                   
01da0 018 00000000 PC       long    0              '$18 ' set up during initialization
01da4 019 00000000 SP       long    0              '$19 ' set up during initialization
01da8 01a 00000000 FP       long    0              '$1a
01dac 01b 00000000 RI       long    0              '$1b
01db0 01c 00000000 BC       long    0              '$1c
01db4 01d 00000000 Save_PC  long    0              '$1d
                   
01db8 01e 00000000 DBG1     long    0              '$1e ' Debugger opAddr
01dbc 01f 00000000 DBG2     long    0              '$1f ' Debugger temp
                   
01dc0 020 000000ff low8     long   $0000_00FF      '$20
01dc4 021 0000ffff low16    long   $0000_FFFF      '$21
01dc8 022 ff000000 top8     long   $FF00_0000      '$22
01dcc 023 0003ffff low18    long   $0003_FFFF      '$23
01dd0 024 00003e1f sd_mask  long   %000000_0000_0000_000011111_000011111 '$24
01dd4 025          INST_OFF                        ' must match INST_OFF in catalina_compact.inc
01dd4 025 00000000 inst     long   $0000_0000      '$25
01dd8 026 00000200 dlsb     long   1<<9            '$26
                   
01ddc 027 00000000 t1       long   $0000_0000      '$27
01de0 028 00000000 t2       long   $0000_0000      '$28
01de4 029 00000000 t3       long   $0000_0000      '$29
01de8 02a 00000000 t4       long   $0000_0000      '$2a
                   
01dec 02b 00000000 t5       long   $0000_0000      '$2b
01df0 02c 00000000 t6       long   $0000_0000      '$2c
                   
01df4 02d 00000000 xfer     long   $0000_0000      '$2d set up during initialization
                   
01df8 02e 00000000 ct1     long  0                 '$2e
01dfc 02f 00000000 ct2     long  0                 '$2f
01e00 030 00000000 ct3     long  0                 '$30
                   
01e04 031          table_16a
01e04 031 00000000 X16A_NOP     nop                '$31
01e08 032 f6000000 X16A_MOV     mov    0,0         '$32
01e0c 033 fac00000 X16A_RDBYTE  rdbyte 0,0         '$33
01e10 034 fae00000 X16A_RDWORD  rdword 0,0         '$34
01e14 035 fb000000 X16A_RDLONG  rdlong 0,0         '$35
01e18 036 fc400000 X16A_WRBYTE  wrbyte 0,0         '$36
01e1c 037 fc500000 X16A_WRWORD  wrword 0,0         '$37
01e20 038 fc600000 X16A_WRLONG  wrlong 0,0         '$38
01e24 039 f1000000 X16A_ADD     add    0,0         '$39
01e28 03a f1400000 X16A_ADDS    adds   0,0         '$3a
01e2c 03b f5000000 X16A_AND     and    0,0         '$3b
01e30 03c f5400000 X16A_OR      or     0,0         '$3c
01e34 03d f5600000 X16A_XOR     xor    0,0         '$3d
01e38 03e f1800000 X16A_SUB     sub    0,0         '$3e
01e3c 03f f1c00000 X16A_SUBS    subs   0,0         '$3f
01e40 040 f2180000 X16A_CMP     cmp    0,0 wcz     '$40
01e44 041 f2580000 X16A_CMPS    cmps   0,0 wcz     '$41
01e48 042 f6600000 X16A_NEG     neg    0,0         '$42
01e4c 043 f0600000 X16A_SHL     shl    0,0         '$43
01e50 044 f0400000 X16A_SHR     shr    0,0         '$44
01e54 045 f0c00000 X16A_SAR     sar    0,0         '$45
01e58 046 f0640000 X16A_SHLI    shl    0,#0        '$46
01e5c 047 f0440000 X16A_SHRI    shr    0,#0        '$47
01e60 048 f0c40000 X16A_SARI    sar    0,#0        '$48
01e64 049 f1040000 X16A_ADDI    add    0,#0        '$49
01e68 04a f1840000 X16A_SUBI    sub    0,#0        '$4a
01e6c 04b f6040000 X16A_MOVI    mov    0,#0        '$4b
01e70 04c f1440000 X16A_ADDSI   adds   0,#0        '$4c
01e74 04d f1c40000 X16A_SUBSI   subs   0,#0        '$4d
01e78 04e f21c0000 X16A_CMPI    cmp    0,#0 wcz    '$4e
01e7c 04f f25c0000 X16A_CMPSI   cmps   0,#0 wcz    '$4f
01e80 050 f6640000 X16A_NEGI    neg    0,#0        '$50
                   
01e84 051 00040000 immi_bit long   %0000_0000000_001_000000000_000000000 '$51
01e88 052 80000000 bit31    long   $8000_0000      '$52
01e8c 053 ffffffff all_1s   long   $FFFF_FFFF      '$53
                   '
01e90 054 00000000          long   0               '$54 spare, but kept to keep offsets correct
01e94 055 00000000 reg      long   0               '$55 registry address
                   
01e98 056          X16B_BRKP                       ' execute break (when debug overlay loaded)
01e98 056          FC_START                        ' must match FC_START in catalina_compact.inc
                   
                   ' cmm_init : initialize VM - note that this code may be overlaid by
                   '            debug code or FCACHE code once initialization is complete.
                   '            It must be kept the same length as the main kernel.
                   
01e98 056          DEBUG_OVERLAY
01e98 056          cmm_init
01e98 056 fb04ab61         rdlong  reg,PTRA++      '$56  1 load registry address (used later)
01e9c 057 fd600401         cogid   r2              '$57  2 register ...
01ea0 058 f0640402         shl     r2,#2           '$58  3 ... ourselves ...
01ea4 059 f1000455         add     r2,reg          '$59  4 ... as ...
01ea8 05a fb000202         rdlong  r1,r2           '$5a  5 ... a ...
01eac 05b f5200222         andn    r1,top8         '$5b  6 ... new ...
01eb0 05c fc600202         wrlong  r1,r2           '$5c  7  kernel
01eb4 05d fb043161         rdlong  PC,PTRA++       '$5d  8 load initial PC
01eb8 05e fb043361         rdlong  SP,PTRA++       '$5e  9 load initial SP
01ebc 05f fb040161         rdlong  r0,PTRA++       '$5f 10 load initial LUT library size (-1)
01ec0 060 fb040361         rdlong  r1,PTRA++       '$60 11 load initial LUT library address
01ec4 061 fb040561         rdlong  r2,PTRA++       '$61 12 load initial arg
01ec8 062 fd600029         setq2   r0              '$62 13 copy lut library ...
01ecc 063 fb020001         rdlong  $100,r1         '$63 14 ... to LUT RAM, starting at $100
01ed0 064 fd90003c         jmp     #read_next      '$64 15 we can now start executing CMM code
01ed4 065 00000000         nop                     '$65 16
01ed8 066 00000000         nop                     '$66 17
01edc 067 00000000         nop                     '$67 18
01ee0 068 00000000         nop                     '$68 19
01ee4 069 00000000         nop                     '$69 20
01ee8 06a 00000000         nop                     '$6a 21
01eec 06b 00000000         nop                     '$6b 22
01ef0 06c 00000000         nop                     '$6c 23
01ef4 06d 00000000         nop                     '$6d 24
01ef8 06e 00000000         nop                     '$6e 25
                   
                   
                   
                   
                   
                   
                   
                   
                   
                   
                   
                   
                   
                   
                   
                   
                   
                   
                   
                   
                   
                   
                   
                   
                   
                   
                   
                   
                   
                   ' when NOT debugging, we don't need to keep track of offset from current PC
                   
01efc 06f          pasm_16
01efc 06f 00000000          long   0-0             '$6f execute generated instruction
01f00 070          done_16
01f00 070 f0444a10          shr    inst,#16        '$70 decode ...
01f04 071 fb9c4a04          tjnz   inst,#decode    '$71 ... another instruction ?
01f08 072          FC_INLINE                       ' must match FC_INLINE in catalina_compact.inc
01f08 072          done_32
01f08 072 fd604024          allowi                 '$72
01f0c 073 f1043004          add    PC,#4           '$73 no - increment PC
                   
01f10 074          EXEC_STOP                       ' must match EXEC_STOP in catalina_compact.inc
01f10 074          read_next
01f10 074 fd604224          stalli                 '$74
01f14 075 fb004a18          rdlong inst,PC         ' fall through to ...
01f18 076          decode
01f18 076 f6004e25          mov    t1,inst         '$76 test ...
                   
                   
                   
01f1c 077 f5044e01          and    t1,#1           ' ... instruction ...
01f20 078 fb944e23          tjz    t1,#decode_16a  ' ... type ...
01f24 079 f6004e25          mov    t1,inst         ' ... to ...
01f28 07a f5044e02          and    t1,#2           ' ... determine ...
01f2c 07b fb944e2d          tjz    t1,#decode_16b  ' ... how to decode
01f30 07c          decode_32
01f30 07c f6004e25          mov    t1,inst         ' extract ...
01f34 07d f0444e1a          shr    t1,#26          ' ... 6 bit opcode
01f38 07e f1044e83          add    t1,#table_32
01f3c 07f f6005025          mov    t2,inst         ' extract ...
01f40 080 f0445002          shr    t2,#S32         ' ... 24 bits ...
01f44 081 f5205022          andn   t2,top8         ' ... of src (or src & dst)
01f48 082 fd604e2c          jmp    t1
01f4c 083          table_32
01f4c 083 fd900308          jmp    #X32_JMPA
01f50 084 fd9002f8          jmp    #X32_CALA
01f54 085 fd900308          jmp    #X32_LODI
01f58 086 fd900318          jmp    #X32_PSHA
01f5c 087 fd900308          jmp    #X32_PSHF
01f60 088 fd900320          jmp    #X32_PSHM
01f64 089 fd900360          jmp    #X32_BR_Z
01f68 08a fd900354          jmp    #X32_BRNZ
01f6c 08b fd900360          jmp    #X32_BRAE
01f70 08c fd900360          jmp    #X32_BR_A
01f74 08d fd900364          jmp    #X32_BRBE
01f78 08e fd900364          jmp    #X32_BR_B
01f7c 08f fd90039c          jmp    #X32_PSHB
01f80 090 fd9001e8          jmp    #X32_CPYB
01f84 091 fd9003f4          jmp    #X32_LODA
01f88 092 fd900414          jmp    #X32_NEWF
01f8c 093 fd900438          jmp    #X32_RETF
01f90 094 fd90044c          jmp    #X32_LODF
01f94 095 fd90039c          jmp    #X32_MOV
01f98 096 fd9003a0          jmp    #X32_MOVI
01f9c 097 fd9003b0          jmp    #X32_SPILL
01fa0 098 fd9003c8          jmp    #X32_CPREP
01fa4 099 fd9003dc          jmp    #X32_LODS
                   
01fa8 09a f0000000 pasm_32  long   %1111_0000000_000_000000000_000000000
01fac 09b fd9fff58          jmp    #done_32
                   
                   
                   ' decode 16 bit instruction (set a)
                   
01fb0 09c          decode_16a
01fb0 09c f6005025          mov    t2,inst         ' from instruction ....
01fb4 09d f0445001          shr    t2,#S16A        ' ... extract ...
01fb8 09e f9b8de28          sets   pasm_16,t2      ' ... src
01fbc 09f f0445005          shr    t2,#D16A-S16A   ' ... and ...
01fc0 0a0 f9b0de28          setd   pasm_16,t2      ' ... dst
01fc4 0a1 f0445005          shr    t2,#11-D16A     ' extract 5 bits ...
01fc8 0a2 f504501f          and    t2,#$1F         ' ... of op code
01fcc 0a3 f1045031          add    t2,#table_16a   ' calculate addr of instruction template
01fd0 0a4 f9b94e28          sets   set_inst,t2     ' put addr in setup instruction
01fd4 0a5 f500de24          and    pasm_16,sd_mask ' mask src & dst to 5 bits each
01fd8 0a6 00000000 	 nop                    ' 1 requires this!!!
01fdc 0a7 f540de00 set_inst or     pasm_16,0-0     ' put instruction in place
01fe0 0a8 fd9fff18          jmp    #pasm_16        ' execute instruction
                   
                   
                   ' decode 16 bit instructions (set b)
                   
01fe4 0a9          decode_16b
01fe4 0a9 f6004e25          mov    t1,inst         ' extract ...
01fe8 0aa f0444e0b          shr    t1,#11          ' ... 5 bits ...
01fec 0ab f5044e1f          and    t1,#$1f         ' ... of op code
01ff0 0ac f1044eae          add    t1,#table_16b   ' calculate jump
01ff4 0ad fd604e2c          jmp    t1              ' execute primitive
01ff8 0ae          table_16b
01ff8 0ae fd9001f0          jmp    #X16B_LODF      '
01ffc 0af fd9003bc          jmp    #X16B_RETF      '
02000 0b0 fd9003d0          jmp    #X16B_RETN      '
02004 0b1 fd900064          jmp    #X16B_POPM      '
02008 0b2 fd9000bc          jmp    #X16B_JMPI      '
0200c 0b3 fd900238          jmp    #X16B_CALI      '
02010 0b4 fd9000a8          jmp    #X16B_PSHL      '
02014 0b5 fd9000b8          jmp    #X16B_DIVS      '
02018 0b6 fd9000bc          jmp    #X16B_DIVU      '
0201c 0b7 fd9000c0          jmp    #X16B_MULT      '
02020 0b8 fd900108          jmp    #X16B_FLTP      ' was #X16B_FADD      '
02024 0b9 fd9002c8          jmp    #X16B_RJ_Z      ' was #X16B_FSUB      '
02028 0ba fd9002bc          jmp    #X16B_RJNZ      ' was #X16B_FMUL      '
0202c 0bb fd9002c8          jmp    #X16B_RJAE      ' was #X16B_FDIV      '
02030 0bc fd9002c8          jmp    #X16B_RJ_A      ' was #X16B_FCMP      '
02034 0bd fd9002cc          jmp    #X16B_RJBE      ' was #X16B_FLIN      '
02038 0be fd9002cc          jmp    #X16B_RJ_B      ' was #X16B_INFL      '
0203c 0bf fd9000ac          jmp    #X16B_SYSP      '
02040 0c0 fd9000cc          jmp    #X16B_EXEC      '
02044 0c1 fd900190          jmp    #X16B_SIGN      '
02048 0c2 fd900194          jmp    #X16B_CPL       '
0204c 0c3 fd900174          jmp    #X16B_TRN1      '
02050 0c4 fd900178          jmp    #X16B_TRN2      '
02054 0c5 fd900140          jmp    #X16B_LODL      '
02058 0c6 fd9ffe3c          jmp    #X16B_BRKP      '
0205c 0c7 fd9001a4          jmp    #X16B_FCACHE    '
02060 0c8 fd900090          jmp    #X16B_PASM      '
02064 0c9 fd9001c4          jmp    #X16B_CPREP     '
02068 0ca fd9002a0          jmp    #X16B_JMPR      '
                   
0206c 0cb          X16B_POPM
0206c 0cb fb003619          rdlong RI,SP           ' load ...
02070 0cc f1043204          add    SP,#4           ' ... register specification to pop
02074 0cd f6045017          mov    t2, #r23        ' start with ...
02078 0ce f0643608          shl    RI,#(32-24)     ' ... r23
0207c 0cf          pop_nxt
0207c 0cf f07c3601          shl    RI,#1 wcz       ' load rX?
02080 0d0 c98c5000    if_c  altd   t2              ' if so ...
02084 0d1 cb000019    if_c  rdlong 0-0,SP          ' ... load ...
02088 0d2 c1043204    if_c  add    SP,#4           ' ... the register
0208c 0d3 ad900008    if_z  jmp   #pop_done
02090 0d4 f1845001          sub    t2,#1           ' point to previous register
02094 0d5 fd9fffe4          jmp    #pop_nxt        ' continue till all registers popped
02098 0d6 f6005025 pop_done mov    t2,inst         ' extract ...
0209c 0d7 f50c51fc          and    t2,#$1FC wz     ' ... frame size (7 bits, multiple of 4)
020a0 0d8 f7c84add          test   inst,frm_bit wz ' pop frame ?
020a4 0d9 ad900320    if_z  jmp    #X32_RETF       ' yes - pop frame (and execute implied return)
020a8 0da f7c84ade          test   inst,ret_bit wz ' no - return ?
020ac 0db ad900324    if_z  jmp    #X16B_RETN      ' yes
020b0 0dc fd9ffe4c          jmp    #done_16        ' no - just carry on executing instructions
                   
020b4 0dd 00000200 frm_bit  long   1<<(7+S16B)     ' bit to test for frame pop (pop if zero)
020b8 0de 00000400 ret_bit  long   1<<(8+S16B)     ' bit to test for return (return if zero)
                   
020bc 0df          X16B_PSHL
020bc 0df f1843204          sub    SP,#4           ' decrement SP
020c0 0e0 fc603619          wrlong RI,SP           ' save value on stack
020c4 0e1 fd9ffe38          jmp    #done_16
020c8 0e2          X16B_JMPI
020c8 0e2 f600301b          mov    PC,RI
020cc 0e3 fd9ffe40          jmp    #read_next
                   
                   'X16B_DIVS - Signed 32 bit division
                   '        Divisor  : r1
                   '        Dividend : r0
                   '        Result   :
                   '           Quotient in r0
                   '           Remainder in r1
                   
020d0 0e4          X16B_DIVS
020d0 0e4 fda00303          call   #\signed_d32     ' perform unsigned division
020d4 0e5 fd9ffe28          jmp    #done_16
                   
                   'X16B_DIVU - unsigned 32 bit division
                   '        Divisor  : r1
                   '        Dividend : r0
                   '        Result   :
                   '           Quotient in r0
                   '           Remainder in r1
                   
020d8 0e6          X16B_DIVU
020d8 0e6 fda00300         call    #\unsigned_d32   ' perform unsigned division
020dc 0e7 fd9ffe20         jmp     #done_16
                   
                   ' X16B_MULT - multiplication
                   '        r0 : 1st operand (32 bit)
                   '        r1 : 2nd operand (32 bit)
                   '        Result :
                   '           Product in r0 (<= 32 bit)
                   
020e0 0e8          X16B_MULT
020e0 0e8 fd000001          qmul   r0,r1
020e4 0e9 fd600018          getqx  r0
020e8 0ea fd9ffe14          jmp    #done_16
                   
                   ' X16B_SYSP - call a plugin
                   ' On entry:
                   '        R3 = code:
                   '            - cog id if >= 128 (i.e. $80 + cog id)
                   '            - plugin type if < 128 (i.e. 0 .. 127)
                   '            - service id if < 0
                   '        R2 = data (optional pointer)
                   '
                   ' NOTES: Locks are currently only supported when invoking via a service id.
                   '        When using service id, the data should only use the lower 24 bits.
                   '
                   ' On exit:
                   '        R0 = result
                   '
020ec 0eb          X16B_SYSP
020ec 0eb fda0030d          call    #\do_plugin    ' do_plugin does all the work
020f0 0ec fd9ffe0c          jmp     #done_16
                   
                   '
                   ' X16B_PASM - Execute one long (starting at next long boundary) as an instruction.
                   '
020f4 0ed          X16B_PASM
020f4 0ed f5243003          andn   PC,#3           ' align PC to long
020f8 0ee f1043004          add    PC,#4           ' point to next long
020fc 0ef fb01e418          rdlong exec1a,PC       ' fetch the instruction
02100 0f0 f1043004          add    PC,#4           ' point to next long
02104 0f1 00000000 	 nop                    ' 1 requires this!!!
02108 0f2 00000000 exec1a   long   0-0
0210c 0f3 fd800074          jmp    #\EXEC_STOP      ' done
                   '
                   ' X16B_EXEC - Execute multiple longs (starting at next long boundary) as instructions.
                   '            To exit, execute the instruction "jmp #EXEC_STOP"
02110 0f4          X16B_EXEC
02110 0f4 f5243003          andn   PC,#3           ' align PC to long
02114 0f5 f1043004          add    PC,#4           ' point to next long
02118 0f6          exec_loop
02118 0f6 fb01f218          rdlong exec1b,PC
0211c 0f7 f1043004          add    PC,#4           ' point to next long
02120 0f8 00000000 	 nop                    ' 1 requires this!!!
02124 0f9 00000000 exec1b   long   0-0
                   
                   
                   
                   
                   
                   
                   
                   
                   
                   
                   
                   
                   
                   
02128 0fa fd9fffec          jmp    #exec_loop
                   
                   '
                   '------------------------------------------------------------------------------
                   ' Float32 Assembly language routines
                   '------------------------------------------------------------------------------
                   '
                   '------------------------------------------------------------------------------
                   ' X16B_FLTP - invoke the floating point plugin
                   '
                   ' input:   t1          service to request
                   '          r0          32-bit floating point value
                   '          r1          32-bit floating point value
                   ' output:  r0          32-bit floating point result
                   '------------------------------------------------------------------------------
                   '
0212c 0fb          X16B_FLTP
0212c 0fb f6005602          mov     t5,r2          ' save r2
02130 0fc f6005803          mov     t6,r3          ' save r3
02134 0fd f6000625          mov     r3,inst        ' get floating point ...
02138 0fe f0440602          shr     r3,#S16B       ' ... operation ...
0213c 0ff f504061f          and     r3,#$1f        ' ... code
                   
                   
                   
                   
02140 100 f6600603          neg     r3,r3          ' negate it (to call a service)
                   
02144 101 f600042d          mov     r2,xfer        ' r2 = data is address of xfer block
02148 102 f6004e2d          mov     t1,xfer        ' write ...
0214c 103 fc600027          wrlong  r0,t1          ' ... first argument to xfer block
02150 104 f1044e04          add     t1,#4          ' write ...
02154 105 fc600227          wrlong  r1,t1          ' ... second argument to xfer block
02158 106 fda0030d          call    #\do_plugin    ' request the service
0215c 107 f600042b          mov     r2,t5          ' restore r2
02160 108 f600062c          mov     r3,t6          ' restore r3
02164 109 f25c0000          cmps    r0,#0 wcz      ' set C & Z flags according to result
02168 10a fd9ffd94          jmp     #done_16
                   
                   '
                   
                   
                   
                   
                   
                   
                   
                   
                   
                   
                   
                   
                   
                   
                   
                   
                   
                   
                   
                   
                   
                   
                   '
                   ' X32_CPYB - copy a structure (size in bytes at the PC)
                   '           from the address in R1 to the address in R0
                   '
0216c 10b          X32_CPYB
0216c 10b f1045003          add    t2,#3           ' round up the count ...
02170 10c f5245003          andn   t2,#3           ' ... to be a multiple of 4
02174 10d f6004e01          mov    t1,r1           ' source is in r1
02178 10e f6005400          mov    t4,r0           ' destination is in r0
                                                   ' fall through to ...
0217c 10f          copy_longs
0217c 10f fb945162          tjz    t2,#done_32     ' no more to copy
02180 110 fb005227          rdlong t3,t1           ' read from src to t3
02184 111 fc60522a          wrlong t3,t4           ' write t3 to dst
02188 112 f1044e04          add    t1,#4           ' increment source
0218c 113 f1045404          add    t4,#4           ' increment destination
02190 114 f1845004          sub    t2,#4           ' decrement count ...
02194 115 fd9fffe4          jmp    #copy_longs     ' ... and keep copying
                   '
02198 116          X16B_LODL
02198 116 f1043004          add    PC,#4           ' point to next long
0219c 117 fb003618          rdlong RI,PC           ' read the long
021a0 118 f5243003          andn   PC,#3           ' align PC to long boundary
021a4 119 f600de32          mov    pasm_16,X16A_MOV ' set up 'mov' instruction
021a8 11a f604521b          mov    t3,#RI          ' set up src
021ac 11b          X16B_set_src_dst
021ac 11b f6005025          mov    t2,inst         ' set up ...
021b0 11c f0445002          shr    t2,#D16B        ' ...
021b4 11d f50451ff          and    t2,#$1FF        ' ...
021b8 11e f9b0de28          setd   pasm_16,t2      ' ... dst ...
021bc 11f f9b8de29          sets   pasm_16,t3      ' and src
021c0 120 fd9ffd38          jmp    #pasm_16
021c4 121          X16B_TRN1
021c4 121 f6045220          mov    t3,#low8
021c8 122 fd900004          jmp    #X16B_set_and
021cc 123          X16B_TRN2
021cc 123 f6045221          mov    t3,#low16
021d0 124          X16B_set_and
021d0 124 f600de3b          mov    pasm_16,X16A_AND ' set up 'and' instruction
021d4 125 fd9fffd4          jmp    #X16B_set_src_dst
021d8 126          X16B_SIGN
021d8 126 f6045252          mov    t3,#bit31
021dc 127 fd900004          jmp    #X16B_set_xor
021e0 128          X16B_CPL
021e0 128 f6045253          mov    t3,#all_1s
021e4 129          X16B_set_xor
021e4 129 f600de3d          mov    pasm_16,X16A_XOR ' set up 'xor' instruction
021e8 12a fd9fffc0          jmp    #X16B_set_src_dst
                   '
021ec 12b          X16B_LODF
021ec 12b f6005025          mov    t2,inst         ' 9 bit src
021f0 12c f0645015          shl    t2,#(32-S16B-9) ' sign ...
021f4 12d f0c45017          sar    t2,#(32-9)      ' ... extend
021f8 12e f600361a          mov    RI,FP
021fc 12f f1403628          adds   RI,t2
02200 130 fd9ffcfc          jmp    #done_16
                   '
02204 131          X16B_FCACHE
                   
02204 131 f6005025          mov    t2,inst         ' set up ...
02208 132 f0445002          shr    t2,#S16B        ' ... instruction count ...
0220c 133 f50451ff          and    t2,#$1FF        ' ... in t2
02210 134 f9b66e56          setd   finst,#FC_START ' start at FCACHE cog addr
02214 135 00000000 	 nop                    ' 1 requires this!!!
02218 136          floop
02218 136 f1043004          add    PC,#4           ' point to next long
0221c 137          finst
0221c 137 fb000018          rdlong 0-0,PC          ' load inst to FCACHE
02220 138 f1026e26          add    finst,dlsb      ' next cog addr
02224 139 fb6c51fc          djnz   t2,#floop       ' continue until all inst loaded
02228 13a fd9ffc6c          jmp    #FC_START       ' start execution of FCACHE
                   
                   '
0222c 13b          X16B_CPREP
0222c 13b f6003825          mov    BC,inst         ' put ...
02230 13c f0443804          shr    BC,#4-(S16B-2)  ' ... upper 5 bits of src ...
02234 13d f504387c          and    BC,#$7C         ' ... (multiplied by 4) into BC
02238 13e f6005025          mov    t2,inst         ' subtract lower 4 bits of src ...
                   '         shr    t2,#S16B-2     ' ... (eliminating shift - not required!) ...
0223c 13f f504503c          and    t2,#$3C         ' ... (mutltiplied by 4) ...
02240 140 f1803228          sub    SP,t2           ' ... from SP
02244 141 fd9ffcb8          jmp    #done_16
                   
02248 142          X16B_CALI
02248 142 f600501b          mov    t2,RI           ' fall through to ...
0224c 143          X32_CALA
0224c 143 f1043004          add    PC,#4           ' increment PC (this is return address)
02250 144 f1843208          sub    SP,#8           ' save ...
02254 145 fc603019          wrlong PC,SP           ' ... PC
                                                   ' fall through to ...
02258 146          X32_JMPA
02258 146 f6003028          mov    PC,t2
0225c 147 fd9ffcb0          jmp    #read_next
02260 148          X32_LODI
02260 148 fb003628          rdlong RI,t2
02264 149 fd9ffca0          jmp    #done_32
02268 14a          X32_PSHF
02268 14a f0645008          shl    t2,#8           ' sign ...
0226c 14b f0c45008          sar    t2,#8           ' ... extend
02270 14c f140501a          adds   t2,FP
                                                   ' fall through to ...
02274 14d          X32_PSHA
02274 14d fb003628          rdlong RI,t2
02278 14e f1843204          sub    SP,#4
0227c 14f fc603619          wrlong RI,SP
02280 150 fd9ffc84          jmp    #done_32
02284 151          X32_PSHM
02284 151 f6004e28          mov    t1,t2           ' save register specification for later
02288 152 f6045206          mov    t3, #r6         ' start with ...
0228c 153 f0445006          shr    t2,#6           ' ... r6 ...
                   
02290 154 f7cc51ff          test   t2,#$1FF wz     ' ... or ...
02294 155 a0445009   if_z   shr    t2,#9           ' ... with ...
02298 156 a604520f   if_z mov    t3,#r15           ' ... r15 if r6 - r15 not used
                   
0229c 157          push_nxt
0229c 157 f05c5001          shr    t2,#1 wcz       ' save rX?
022a0 158 c1843204    if_c  sub    SP,#4           ' yes - save ...
022a4 159 c98c5200    if_c  altd   t3
022a8 15a cc600019    if_c  wrlong 0-0,SP          ' ... register
022ac 15b f1045201          add    t3,#1           ' point to next register
022b0 15c 5d9fffe8    if_nz jmp    #push_nxt       ' continue till all registers checked
022b4 15d f1843204          sub    SP,#4           ' save ...
022b8 15e fc604e19          wrlong t1,SP           ' .... register specification
022bc 15f fd9ffc48          jmp    #done_32
                   '
022c0 160          X32_BRNZ
022c0 160 5d9fff94    if_nz jmp    #X32_JMPA
022c4 161 fd9ffc40          jmp    #done_32
022c8 162          X32_BR_Z
022c8 162 ad9fff8c    if_z  jmp    #X32_JMPA
022cc 163 fd9ffc38          jmp    #done_32
022d0 164          X32_BRAE
022d0 164 3d9fff84    if_ae jmp    #X32_JMPA
022d4 165          X32_BR_A
022d4 165 1d9fff80    if_a  jmp    #X32_JMPA
022d8 166 fd9ffc2c          jmp    #done_32
022dc 167          X32_BRBE
022dc 167 ed9fff78    if_be jmp    #X32_JMPA
022e0 168          X32_BR_B
022e0 168 cd9fff74    if_b  jmp    #X32_JMPA
022e4 169 fd9ffc20          jmp    #done_32
                   '
022e8 16a          X16B_RJNZ
022e8 16a 5d900020    if_nz jmp    #X16B_JMPR
022ec 16b fd9ffc10          jmp    #done_16
022f0 16c          X16B_RJ_Z
022f0 16c ad900018    if_z  jmp    #X16B_JMPR
022f4 16d fd9ffc08          jmp    #done_16
022f8 16e          X16B_RJAE
022f8 16e 3d900010    if_ae jmp    #X16B_JMPR
022fc 16f          X16B_RJ_A
022fc 16f 1d90000c    if_a  jmp    #X16B_JMPR
02300 170 fd9ffbfc          jmp    #done_16
02304 171          X16B_RJBE
02304 171 ed900004    if_be jmp    #X16B_JMPR
02308 172          X16B_RJ_B
02308 172 3d9ffbf4    if_ae jmp    #done_16
0230c 173          X16B_JMPR
0230c 173 f0644a15          shl    inst,#(32-S16B-9) ' sign ...
02310 174 f0c44a17          sar    inst,#(32-9)      ' ... extend
02314 175 f1003025          add    PC,inst         ' add relative jump to PC
02318 176 fd9ffbf4          jmp    #read_next
                   '
                   ' X32_PSHB - push a structure (size in bytes at the PC) pointed to by R0
                   '          onto the stack, decrementing the SP. Note that the source
                   '          and destination data MUST be long aligned - but this is true
                   '          for all normal structures.
                   '
0231c 177          X32_PSHB
0231c 177 f1045003          add    t2,#3           ' round up the count ...
02320 178 f5245003          andn   t2,#3           ' ... to be a multiple of 4
02324 179 f1803228          sub    SP,t2           ' decrement SP by rounded up size
02328 17a f6004e00          mov    t1,r0           ' source is in r0
0232c 17b f6005419          mov    t4,SP           ' destination is SP
02330 17c fd9ffe48          jmp    #copy_longs     ' do the copy
                   '
02334 17d          X32_MOV
02334 17d f5213451          andn   pasm_32,immi_bit ' clear immediate bit
02338 17e fd900004          jmp    #X32_MOVx
0233c 17f          X32_MOVI
0233c 17f f5413451          or     pasm_32,immi_bit ' set immediate bit
02340 180          X32_MOVx
02340 180 f9ad34c0          setr   pasm_32,#%0110000_00 ' mov
02344 181          X32_SD
02344 181 f5213423          andn   pasm_32,low18   ' clear out old src & dst
02348 182 f5413428          or     pasm_32,t2      ' include 9 bits src and 9 bits dst
0234c 183 fd9ffc58          jmp    #pasm_32
02350 184          X32_SPILL
02350 184 f1843804          sub    BC,#4
02354 185 f218381b          cmp    BC,RI wcz
02358 186 cd9ffbac    if_b  jmp    #done_32
0235c 187 f5213451          andn   pasm_32,immi_bit ' clear immediate bit
02360 188 f544501c          or     t2,#BC          ' set src to BC (dst is ok, src should be zero)
02364 189 f9ad358c          setr   pasm_32,#%1100011_00 ' wrlong
02368 18a fd9fffd8          jmp    #X32_SD
0236c 18b          X32_CPREP
0236c 18b f6003828          mov    BC,t2           ' put upper 9 bits of src (i.e. dst)
02370 18c f0443809          shr    BC,#9           ' ... in BC
02374 18d f50451ff          and    t2,#$1FF        ' subtract lower 9 bits of src ...
02378 18e fd900038          jmp    #X32_SUBSP      ' ... from SP
0237c 18f          X32_LODA
0237c 18f f6003628          mov    RI,t2
02380 190 fd9ffb84          jmp    #done_32
02384 191          X32_LODS
02384 191 f6004e28          mov    t1,t2           ' set ...
02388 192 f0444e13          shr    t1,#19          ' ... dst register ...
0238c 193 f9b32c27          setd   X32_LODd,t1     ' ... in move instruction
02390 194 f064500d          shl    t2,#13          ' extract ...
02394 195 f0c4500d          sar    t2,#13          ' src (sign extended immediate)
02398 196 f6000028 X32_LODd mov    0-0,t2          ' mov src to dst
0239c 197 fd9ffb68          jmp    #done_32
023a0 198          X32_NEWF
023a0 198 f1843204          sub    SP,#4           ' decrement the stack pointer
023a4 199 fc603419          wrlong FP,SP           ' save FP to stack
023a8 19a f6003419          mov    FP,SP           ' set up new FP
023ac 19b f1043808          add    BC,#8           ' calculate what SP was ...
023b0 19c f100381a          add    BC,FP           ' ... before arguments were pushed
023b4 19d          X32_SUBSP
023b4 19d f1803228          sub    SP,t2           ' allocate frame
023b8 19e fd9ffb4c          jmp    #done_32
023bc 19f          X16B_RETF
023bc 19f f6005025          mov    t2,inst         ' extract 9 bit ...
023c0 1a0 f0445002          shr    t2,#S16B        ' ...
023c4 1a1 f50451ff          and    t2,#$1FF        ' ... src, and fall through to X32_RETF
023c8 1a2          X32_RETF
023c8 1a2 f1003228          add    SP,t2           ' deallocate frame
023cc 1a3 fb003419          rdlong FP,SP           ' restore previous FP
023d0 1a4 f1043204          add    SP,#4           ' increment the SP
023d4 1a5          FC_RETURN                       ' must match FC_RETURN in Catalina_Compact.inc
023d4 1a5          X16B_RETN
023d4 1a5 fb003019          rdlong PC,SP           ' read the PC
023d8 1a6 f1043208          add    SP,#8           ' increment the SP
023dc 1a7 fd9ffb30          jmp    #read_next
023e0 1a8          X32_LODF
023e0 1a8 f0645008          shl    t2,#8           ' sign ...
023e4 1a9 f0c45008          sar    t2,#8           ' ... extend
023e8 1aa f600361a          mov    RI,FP
023ec 1ab f1403628          adds   RI,t2
023f0 1ac fd9ffb14          jmp    #done_32
                   '
                   ' initcog (cannot be executed using CMM because rdlongs interrupt the setq)
                   '    r4 points to data block (REGISTRY, PC, SP)
                   '    r0 contains cog id (or ANY_COG)
                   '    r3 contains pointer to code to load into cog
                   '
                   ' initcog & lockbits must be in the same place in all CMM kernels
                   
023f4 1ad                   fit    $1e8
024e0 1e8                   orgf   $1e8
                   
024e0 1e8          initcog
024e0 1e8 fd600828          setq r4                ' this will end up in PTRA of new cog
024e4 1e9 0cf00003   _ret_  coginit r0,r3 wc
                   
024e8 1ea 00000000 lockbits long   0               ' lockbits used to simulate P1-style locks
                   
                   ' last 5 longs are reserved for debug overlay vectors (or debug LED)
                   
024ec 1eb                   fit    $1eb
024ec 1eb                   orgf   $1eb
                   
024ec 1eb          DEBUG_VECTORS
                   
                   
                   
                   
                   
                   
                   
                   
                   
                   
                   
024ec 1eb 0007bde8          long   DEBUG_BREAK
024f0 1ec 0007bdec          long   DEBUG_ADDR
024f4 1ed 0007bdf0          long   DEBUG_OUT
024f8 1ee 0007bdf4          long   DEBUG_IN
024fc 1ef 0007bdf8          long   DEBUG_FLAG
                   
02500 1f0                   fit    $1f0
                   
                   '------------------------- END OF KERNEL --------------------------------------
                   
02500 300                   org $300
                   
                   ' Common Kernel library functions. This code is included only to get the LUT
                   ' offsets correct in the dynamically loaded kernel. The actual LUT code is
                   ' loaded into LUT from elsewhere. There must be a better way to do this, but I
                   ' can't think of one at the moment :(
                   
                   '#line 1 "../../../target_p2/Catalina_kernel_library.inc"
                   ' Catalina kernel library functions ...
                   
                   ' avoid including the kernel library functions twice ...
                   
                   
                   
                   
                   
                   
                   
                   
                   
                   
                   
                   
                   
                   
                   
                   
                   
                   
                   
                   
                   
                   
                   
                   
                   
                   
                   
                   
                   
                   
                   
                   
                   
                   
                   
                   
                   
                   
                   
                   
                   
                   
                   
                   
                   
                   
                   
                   
                   
                   
                   
                   
                   
                   
                   
                   
                   
                   
                   
                   
                   
                   
                   
                   
                   
                   
                   
                   
                   
                   
                   
                   
                   
                   
                   
                   
                   
                   
                   
                   
                   
                   
                   
                   
                   
                   
                   
                   
                   
                   
                   
                   
                   
                   
                   
                   
                   
                   
                   
                   
                   
                   
                   
                   
                   
                   
                   
                   
                   
                   
                   
                   
                   
                   
                   
                   
                   
                   
                   
                   
                   
                   
                   
                   
                   
                   
                   
                   
                   
                   
                   
                   
                   
                   
                   
                   
                   
                   
                   
                   
                   
                   
                   
                   
                   
                   
                   
                   '#line 846 "../../../target_p2/Catalina_CMM_dynamic.spin2"
                   
                   '#line 1 "../../../target_p2/Catalina_CMM_kernel_library.inc"
                   ' Catalina kernel functions that are specific to the CMM kernels ...
                   
                   ' avoid including the kernel library functions twice ...
                   
                   
                   
                   
                   
                   
                   
                   
                   
                   
                   
                   
                   
                   
                   
                   
                   
                   
                   
                   
                   
                   
                   
                   
                   
                   
                   
                   
                   
                   
                   
                   
                   
                   
                   
                   
                   
                   
                   
                   
                   
                   
                   
                   
                   
                   
                   
                   
                   
                   
                   
                   
                   
                   
                   
                   
                   
                   
                   
                   
                   
                   
                   
                   
                   
                   
                   
                   
                   
                   
                   
                   
                   
                   
                   
                   
                   
                   
                   
                   
                   
                   
                   
                   
                   
                   
                   
                   
                   
                   
                   
                   
                   
                   
                   '#line 848 "../../../target_p2/Catalina_CMM_dynamic.spin2"
                   
                   
                   '#line 67 "../../../target_p2/Catalina_CMM_library.spin2"
                   
                   CON
                   
                   
